target datalayout = "e-m:e-p270:32:32-p271:32:32-p272:64:64-i64:64-i128:128-f80:128-n8:16:32:64-S128"
target triple = "x86_64-pc-linux-gnu"

; Function Attrs: nounwind sspstrong uwtable
define internal i64 @proc_setpgrp(i64 noundef %0) #0 {
  %2 = alloca i64, align 8
  %3 = alloca i32, align 4
  store i64 %0, ptr %2, align 8, !tbaa !35
  %4 = call i32 @setpgid(i32 noundef 0, i32 noundef 0) #27
  %5 = icmp slt i32 %4, 0
  br i1 %5, label %6, label %12

6:                                                ; preds = %1
  br label %7

7:                                                ; preds = %6
  call void @llvm.lifetime.start.p0(i64 4, ptr %3) #27
  %8 = call ptr @rb_errno_ptr()
  %9 = load i32, ptr %8, align 4, !tbaa !34
  store i32 %9, ptr %3, align 4, !tbaa !34
  %10 = load i32, ptr %3, align 4, !tbaa !34
  call void @rb_syserr_fail(i32 noundef %10, ptr noundef null) #30
  unreachable

11:                                               ; No predecessors!
  br label %12

12:                                               ; preds = %11, %1
  ret i64 1
}