; Function Attrs: nounwind sspstrong uwtable
define internal noundef i64 @proc_setpgrp(i64 %0) #1 {
  %2 = tail call i32 @setpgid(i32 noundef 0, i32 noundef 0) #27
  %3 = icmp slt i32 %2, 0
  br i1 %3, label %4, label %7

4:                                                ; preds = %1
  %5 = tail call ptr @rb_errno_ptr() #27
  %6 = load i32, ptr %5, align 4, !tbaa !60
  tail call void @rb_syserr_fail(i32 noundef %6, ptr noundef null) #29
  unreachable

7:                                                ; preds = %1
  ret i64 1
}